target datalayout = "e-m:e-p270:32:32-p271:32:32-p272:64:64-i64:64-i128:128-f80:128-n8:16:32:64-S128"
target triple = "x86_64-pc-linux-gnu"

%struct.P9Req = type { ptr, ptr, i16, i64, i32, i64, i64, i64, i32 }
%struct.v9fs_attr = type { i64, [13 x i8], i32, i32, i32, i64, i64, i64, i64, i64, i64, i64, i64, i64, i64, i64, i64, i64, i64, i64 }

@alloc = internal global ptr null, align 8

; Function Attrs: inlinehint nounwind sspstrong uwtable
define internal void @le32_to_cpus(ptr noundef %0) #3 {
  %2 = alloca ptr, align 8
  store ptr %0, ptr %2, align 8
  ret void
}

; Function Attrs: inlinehint nounwind sspstrong uwtable
define internal void @le64_to_cpus(ptr noundef %0) #3 {
  %2 = alloca ptr, align 8
  store ptr %0, ptr %2, align 8
  ret void
}

; Function Attrs: nounwind sspstrong uwtable
define dso_local void @v9fs_req_free(ptr noundef %0) #0 {
  %2 = alloca ptr, align 8
  store ptr %0, ptr %2, align 8
  %3 = load ptr, ptr @alloc, align 8
  %4 = load ptr, ptr %2, align 8
  %5 = getelementptr inbounds nuw %struct.P9Req, ptr %4, i32 0, i32 3
  %6 = load i64, ptr %5, align 8
  call void @guest_free(ptr noundef %3, i64 noundef %6)
  %7 = load ptr, ptr @alloc, align 8
  %8 = load ptr, ptr %2, align 8
  %9 = getelementptr inbounds nuw %struct.P9Req, ptr %8, i32 0, i32 5
  %10 = load i64, ptr %9, align 8
  call void @guest_free(ptr noundef %7, i64 noundef %10)
  %11 = load ptr, ptr %2, align 8
  call void @g_free(ptr noundef %11)
  ret void
}

; Function Attrs: nounwind sspstrong uwtable
define dso_local void @v9fs_uint32_read(ptr noundef %0, ptr noundef %1) #0 {
  %3 = alloca ptr, align 8
  %4 = alloca ptr, align 8
  store ptr %0, ptr %3, align 8
  store ptr %1, ptr %4, align 8
  %5 = load ptr, ptr %3, align 8
  %6 = load ptr, ptr %4, align 8
  call void @v9fs_memread(ptr noundef %5, ptr noundef %6, i64 noundef 4)
  %7 = load ptr, ptr %4, align 8
  call void @le32_to_cpus(ptr noundef %7)
  ret void
}

; Function Attrs: nounwind sspstrong uwtable
define dso_local void @v9fs_memread(ptr noundef %0, ptr noundef %1, i64 noundef %2) #0 {
  %4 = alloca ptr, align 8
  %5 = alloca ptr, align 8
  %6 = alloca i64, align 8
  store ptr %0, ptr %4, align 8
  store ptr %1, ptr %5, align 8
  store i64 %2, ptr %6, align 8
  %7 = load ptr, ptr %4, align 8
  %8 = getelementptr inbounds nuw %struct.P9Req, ptr %7, i32 0, i32 0
  %9 = load ptr, ptr %8, align 8
  %10 = load ptr, ptr %4, align 8
  %11 = getelementptr inbounds nuw %struct.P9Req, ptr %10, i32 0, i32 5
  %12 = load i64, ptr %11, align 8
  %13 = load ptr, ptr %4, align 8
  %14 = getelementptr inbounds nuw %struct.P9Req, ptr %13, i32 0, i32 7
  %15 = load i64, ptr %14, align 8
  %16 = add i64 %12, %15
  %17 = load ptr, ptr %5, align 8
  %18 = load i64, ptr %6, align 8
  call void @qtest_memread(ptr noundef %9, i64 noundef %16, ptr noundef %17, i64 noundef %18)
  %19 = load i64, ptr %6, align 8
  %20 = load ptr, ptr %4, align 8
  %21 = getelementptr inbounds nuw %struct.P9Req, ptr %20, i32 0, i32 7
  %22 = load i64, ptr %21, align 8
  %23 = add i64 %22, %19
  store i64 %23, ptr %21, align 8
  ret void
}

; Function Attrs: nounwind sspstrong uwtable
define dso_local void @v9fs_uint64_read(ptr noundef %0, ptr noundef %1) #0 {
  %3 = alloca ptr, align 8
  %4 = alloca ptr, align 8
  store ptr %0, ptr %3, align 8
  store ptr %1, ptr %4, align 8
  %5 = load ptr, ptr %3, align 8
  %6 = load ptr, ptr %4, align 8
  call void @v9fs_memread(ptr noundef %5, ptr noundef %6, i64 noundef 8)
  %7 = load ptr, ptr %4, align 8
  call void @le64_to_cpus(ptr noundef %7)
  ret void
}

; Function Attrs: nounwind sspstrong uwtable
define dso_local void @v9fs_rgetattr(ptr noundef %0, ptr noundef %1) #0 {
  %3 = alloca ptr, align 8
  %4 = alloca ptr, align 8
  store ptr %0, ptr %3, align 8
  store ptr %1, ptr %4, align 8
  %5 = load ptr, ptr %3, align 8
  call void @v9fs_req_recv(ptr noundef %5, i8 noundef zeroext 25)
  %6 = load ptr, ptr %3, align 8
  %7 = load ptr, ptr %4, align 8
  %8 = getelementptr inbounds nuw %struct.v9fs_attr, ptr %7, i32 0, i32 0
  call void @v9fs_uint64_read(ptr noundef %6, ptr noundef %8)
  %9 = load ptr, ptr %3, align 8
  %10 = load ptr, ptr %4, align 8
  %11 = getelementptr inbounds nuw %struct.v9fs_attr, ptr %10, i32 0, i32 1
  call void @v9fs_memread(ptr noundef %9, ptr noundef %11, i64 noundef 13)
  %12 = load ptr, ptr %3, align 8
  %13 = load ptr, ptr %4, align 8
  %14 = getelementptr inbounds nuw %struct.v9fs_attr, ptr %13, i32 0, i32 2
  call void @v9fs_uint32_read(ptr noundef %12, ptr noundef %14)
  %15 = load ptr, ptr %3, align 8
  %16 = load ptr, ptr %4, align 8
  %17 = getelementptr inbounds nuw %struct.v9fs_attr, ptr %16, i32 0, i32 3
  call void @v9fs_uint32_read(ptr noundef %15, ptr noundef %17)
  %18 = load ptr, ptr %3, align 8
  %19 = load ptr, ptr %4, align 8
  %20 = getelementptr inbounds nuw %struct.v9fs_attr, ptr %19, i32 0, i32 4
  call void @v9fs_uint32_read(ptr noundef %18, ptr noundef %20)
  %21 = load ptr, ptr %3, align 8
  %22 = load ptr, ptr %4, align 8
  %23 = getelementptr inbounds nuw %struct.v9fs_attr, ptr %22, i32 0, i32 5
  call void @v9fs_uint64_read(ptr noundef %21, ptr noundef %23)
  %24 = load ptr, ptr %3, align 8
  %25 = load ptr, ptr %4, align 8
  %26 = getelementptr inbounds nuw %struct.v9fs_attr, ptr %25, i32 0, i32 6
  call void @v9fs_uint64_read(ptr noundef %24, ptr noundef %26)
  %27 = load ptr, ptr %3, align 8
  %28 = load ptr, ptr %4, align 8
  %29 = getelementptr inbounds nuw %struct.v9fs_attr, ptr %28, i32 0, i32 7
  call void @v9fs_uint64_read(ptr noundef %27, ptr noundef %29)
  %30 = load ptr, ptr %3, align 8
  %31 = load ptr, ptr %4, align 8
  %32 = getelementptr inbounds nuw %struct.v9fs_attr, ptr %31, i32 0, i32 8
  call void @v9fs_uint64_read(ptr noundef %30, ptr noundef %32)
  %33 = load ptr, ptr %3, align 8
  %34 = load ptr, ptr %4, align 8
  %35 = getelementptr inbounds nuw %struct.v9fs_attr, ptr %34, i32 0, i32 9
  call void @v9fs_uint64_read(ptr noundef %33, ptr noundef %35)
  %36 = load ptr, ptr %3, align 8
  %37 = load ptr, ptr %4, align 8
  %38 = getelementptr inbounds nuw %struct.v9fs_attr, ptr %37, i32 0, i32 10
  call void @v9fs_uint64_read(ptr noundef %36, ptr noundef %38)
  %39 = load ptr, ptr %3, align 8
  %40 = load ptr, ptr %4, align 8
  %41 = getelementptr inbounds nuw %struct.v9fs_attr, ptr %40, i32 0, i32 11
  call void @v9fs_uint64_read(ptr noundef %39, ptr noundef %41)
  %42 = load ptr, ptr %3, align 8
  %43 = load ptr, ptr %4, align 8
  %44 = getelementptr inbounds nuw %struct.v9fs_attr, ptr %43, i32 0, i32 12
  call void @v9fs_uint64_read(ptr noundef %42, ptr noundef %44)
  %45 = load ptr, ptr %3, align 8
  %46 = load ptr, ptr %4, align 8
  %47 = getelementptr inbounds nuw %struct.v9fs_attr, ptr %46, i32 0, i32 13
  call void @v9fs_uint64_read(ptr noundef %45, ptr noundef %47)
  %48 = load ptr, ptr %3, align 8
  %49 = load ptr, ptr %4, align 8
  %50 = getelementptr inbounds nuw %struct.v9fs_attr, ptr %49, i32 0, i32 14
  call void @v9fs_uint64_read(ptr noundef %48, ptr noundef %50)
  %51 = load ptr, ptr %3, align 8
  %52 = load ptr, ptr %4, align 8
  %53 = getelementptr inbounds nuw %struct.v9fs_attr, ptr %52, i32 0, i32 15
  call void @v9fs_uint64_read(ptr noundef %51, ptr noundef %53)
  %54 = load ptr, ptr %3, align 8
  %55 = load ptr, ptr %4, align 8
  %56 = getelementptr inbounds nuw %struct.v9fs_attr, ptr %55, i32 0, i32 16
  call void @v9fs_uint64_read(ptr noundef %54, ptr noundef %56)
  %57 = load ptr, ptr %3, align 8
  %58 = load ptr, ptr %4, align 8
  %59 = getelementptr inbounds nuw %struct.v9fs_attr, ptr %58, i32 0, i32 17
  call void @v9fs_uint64_read(ptr noundef %57, ptr noundef %59)
  %60 = load ptr, ptr %3, align 8
  %61 = load ptr, ptr %4, align 8
  %62 = getelementptr inbounds nuw %struct.v9fs_attr, ptr %61, i32 0, i32 18
  call void @v9fs_uint64_read(ptr noundef %60, ptr noundef %62)
  %63 = load ptr, ptr %3, align 8
  %64 = load ptr, ptr %4, align 8
  %65 = getelementptr inbounds nuw %struct.v9fs_attr, ptr %64, i32 0, i32 19
  call void @v9fs_uint64_read(ptr noundef %63, ptr noundef %65)
  %66 = load ptr, ptr %3, align 8
  call void @v9fs_req_free(ptr noundef %66)
  ret void
}