; Function Attrs: nounwind sspstrong uwtable
define dso_local void @v9fs_rgetattr(ptr noundef %0, ptr noundef %1) local_unnamed_addr #1 {
  tail call void @v9fs_req_recv(ptr noundef %0, i8 noundef zeroext 25)
  %3 = load ptr, ptr %0, align 8
  %4 = getelementptr inbounds nuw i8, ptr %0, i64 40
  %5 = load i64, ptr %4, align 8
  %6 = getelementptr inbounds nuw i8, ptr %0, i64 56
  %7 = load i64, ptr %6, align 8
  %8 = add i64 %7, %5
  tail call void @qtest_memread(ptr noundef %3, i64 noundef %8, ptr noundef %1, i64 noundef 8) #14
  %9 = load i64, ptr %6, align 8
  %10 = add i64 %9, 8
  store i64 %10, ptr %6, align 8
  %11 = getelementptr inbounds nuw i8, ptr %1, i64 8
  %12 = load ptr, ptr %0, align 8
  %13 = load i64, ptr %4, align 8
  %14 = add i64 %13, %10
  tail call void @qtest_memread(ptr noundef %12, i64 noundef %14, ptr noundef nonnull %11, i64 noundef 13) #14
  %15 = load i64, ptr %6, align 8
  %16 = add i64 %15, 13
  store i64 %16, ptr %6, align 8
  %17 = getelementptr inbounds nuw i8, ptr %1, i64 24
  %18 = load ptr, ptr %0, align 8
  %19 = load i64, ptr %4, align 8
  %20 = add i64 %19, %16
  tail call void @qtest_memread(ptr noundef %18, i64 noundef %20, ptr noundef nonnull %17, i64 noundef 4) #14
  %21 = load i64, ptr %6, align 8
  %22 = add i64 %21, 4
  store i64 %22, ptr %6, align 8
  %23 = getelementptr inbounds nuw i8, ptr %1, i64 28
  %24 = load ptr, ptr %0, align 8
  %25 = load i64, ptr %4, align 8
  %26 = add i64 %25, %22
  tail call void @qtest_memread(ptr noundef %24, i64 noundef %26, ptr noundef nonnull %23, i64 noundef 4) #14
  %27 = load i64, ptr %6, align 8
  %28 = add i64 %27, 4
  store i64 %28, ptr %6, align 8
  %29 = getelementptr inbounds nuw i8, ptr %1, i64 32
  %30 = load ptr, ptr %0, align 8
  %31 = load i64, ptr %4, align 8
  %32 = add i64 %31, %28
  tail call void @qtest_memread(ptr noundef %30, i64 noundef %32, ptr noundef nonnull %29, i64 noundef 4) #14
  %33 = load i64, ptr %6, align 8
  %34 = add i64 %33, 4
  store i64 %34, ptr %6, align 8
  %35 = getelementptr inbounds nuw i8, ptr %1, i64 40
  %36 = load ptr, ptr %0, align 8
  %37 = load i64, ptr %4, align 8
  %38 = add i64 %37, %34
  tail call void @qtest_memread(ptr noundef %36, i64 noundef %38, ptr noundef nonnull %35, i64 noundef 8) #14
  %39 = load i64, ptr %6, align 8
  %40 = add i64 %39, 8
  store i64 %40, ptr %6, align 8
  %41 = getelementptr inbounds nuw i8, ptr %1, i64 48
  %42 = load ptr, ptr %0, align 8
  %43 = load i64, ptr %4, align 8
  %44 = add i64 %43, %40
  tail call void @qtest_memread(ptr noundef %42, i64 noundef %44, ptr noundef nonnull %41, i64 noundef 8) #14
  %45 = load i64, ptr %6, align 8
  %46 = add i64 %45, 8
  store i64 %46, ptr %6, align 8
  %47 = getelementptr inbounds nuw i8, ptr %1, i64 56
  %48 = load ptr, ptr %0, align 8
  %49 = load i64, ptr %4, align 8
  %50 = add i64 %49, %46
  tail call void @qtest_memread(ptr noundef %48, i64 noundef %50, ptr noundef nonnull %47, i64 noundef 8) #14
  %51 = load i64, ptr %6, align 8
  %52 = add i64 %51, 8
  store i64 %52, ptr %6, align 8
  %53 = getelementptr inbounds nuw i8, ptr %1, i64 64
  %54 = load ptr, ptr %0, align 8
  %55 = load i64, ptr %4, align 8
  %56 = add i64 %55, %52
  tail call void @qtest_memread(ptr noundef %54, i64 noundef %56, ptr noundef nonnull %53, i64 noundef 8) #14
  %57 = load i64, ptr %6, align 8
  %58 = add i64 %57, 8
  store i64 %58, ptr %6, align 8
  %59 = getelementptr inbounds nuw i8, ptr %1, i64 72
  %60 = load ptr, ptr %0, align 8
  %61 = load i64, ptr %4, align 8
  %62 = add i64 %61, %58
  tail call void @qtest_memread(ptr noundef %60, i64 noundef %62, ptr noundef nonnull %59, i64 noundef 8) #14
  %63 = load i64, ptr %6, align 8
  %64 = add i64 %63, 8
  store i64 %64, ptr %6, align 8
  %65 = getelementptr inbounds nuw i8, ptr %1, i64 80
  %66 = load ptr, ptr %0, align 8
  %67 = load i64, ptr %4, align 8
  %68 = add i64 %67, %64
  tail call void @qtest_memread(ptr noundef %66, i64 noundef %68, ptr noundef nonnull %65, i64 noundef 8) #14
  %69 = load i64, ptr %6, align 8
  %70 = add i64 %69, 8
  store i64 %70, ptr %6, align 8
  %71 = getelementptr inbounds nuw i8, ptr %1, i64 88
  %72 = load ptr, ptr %0, align 8
  %73 = load i64, ptr %4, align 8
  %74 = add i64 %73, %70
  tail call void @qtest_memread(ptr noundef %72, i64 noundef %74, ptr noundef nonnull %71, i64 noundef 8) #14
  %75 = load i64, ptr %6, align 8
  %76 = add i64 %75, 8
  store i64 %76, ptr %6, align 8
  %77 = getelementptr inbounds nuw i8, ptr %1, i64 96
  %78 = load ptr, ptr %0, align 8
  %79 = load i64, ptr %4, align 8
  %80 = add i64 %79, %76
  tail call void @qtest_memread(ptr noundef %78, i64 noundef %80, ptr noundef nonnull %77, i64 noundef 8) #14
  %81 = load i64, ptr %6, align 8
  %82 = add i64 %81, 8
  store i64 %82, ptr %6, align 8
  %83 = getelementptr inbounds nuw i8, ptr %1, i64 104
  %84 = load ptr, ptr %0, align 8
  %85 = load i64, ptr %4, align 8
  %86 = add i64 %85, %82
  tail call void @qtest_memread(ptr noundef %84, i64 noundef %86, ptr noundef nonnull %83, i64 noundef 8) #14
  %87 = load i64, ptr %6, align 8
  %88 = add i64 %87, 8
  store i64 %88, ptr %6, align 8
  %89 = getelementptr inbounds nuw i8, ptr %1, i64 112
  %90 = load ptr, ptr %0, align 8
  %91 = load i64, ptr %4, align 8
  %92 = add i64 %91, %88
  tail call void @qtest_memread(ptr noundef %90, i64 noundef %92, ptr noundef nonnull %89, i64 noundef 8) #14
  %93 = load i64, ptr %6, align 8
  %94 = add i64 %93, 8
  store i64 %94, ptr %6, align 8
  %95 = getelementptr inbounds nuw i8, ptr %1, i64 120
  %96 = load ptr, ptr %0, align 8
  %97 = load i64, ptr %4, align 8
  %98 = add i64 %97, %94
  tail call void @qtest_memread(ptr noundef %96, i64 noundef %98, ptr noundef nonnull %95, i64 noundef 8) #14
  %99 = load i64, ptr %6, align 8
  %100 = add i64 %99, 8
  store i64 %100, ptr %6, align 8
  %101 = getelementptr inbounds nuw i8, ptr %1, i64 128
  %102 = load ptr, ptr %0, align 8
  %103 = load i64, ptr %4, align 8
  %104 = add i64 %103, %100
  tail call void @qtest_memread(ptr noundef %102, i64 noundef %104, ptr noundef nonnull %101, i64 noundef 8) #14
  %105 = load i64, ptr %6, align 8
  %106 = add i64 %105, 8
  store i64 %106, ptr %6, align 8
  %107 = getelementptr inbounds nuw i8, ptr %1, i64 136
  %108 = load ptr, ptr %0, align 8
  %109 = load i64, ptr %4, align 8
  %110 = add i64 %109, %106
  tail call void @qtest_memread(ptr noundef %108, i64 noundef %110, ptr noundef nonnull %107, i64 noundef 8) #14
  %111 = load i64, ptr %6, align 8
  %112 = add i64 %111, 8
  store i64 %112, ptr %6, align 8
  %113 = getelementptr inbounds nuw i8, ptr %1, i64 144
  %114 = load ptr, ptr %0, align 8
  %115 = load i64, ptr %4, align 8
  %116 = add i64 %115, %112
  tail call void @qtest_memread(ptr noundef %114, i64 noundef %116, ptr noundef nonnull %113, i64 noundef 8) #14
  %117 = load i64, ptr %6, align 8
  %118 = add i64 %117, 8
  store i64 %118, ptr %6, align 8
  %119 = getelementptr inbounds nuw i8, ptr %1, i64 152
  %120 = load ptr, ptr %0, align 8
  %121 = load i64, ptr %4, align 8
  %122 = add i64 %121, %118
  tail call void @qtest_memread(ptr noundef %120, i64 noundef %122, ptr noundef nonnull %119, i64 noundef 8) #14
  %123 = load i64, ptr %6, align 8
  %124 = add i64 %123, 8
  store i64 %124, ptr %6, align 8
  %125 = load ptr, ptr @alloc, align 8
  %126 = getelementptr inbounds nuw i8, ptr %0, i64 24
  %127 = load i64, ptr %126, align 8
  tail call void @guest_free(ptr noundef %125, i64 noundef %127) #14
  %128 = load ptr, ptr @alloc, align 8
  %129 = load i64, ptr %4, align 8
  tail call void @guest_free(ptr noundef %128, i64 noundef %129) #14
  tail call void @g_free(ptr noundef nonnull %0) #14
  ret void
}